target datalayout = "e-m:e-p270:32:32-p271:32:32-p272:64:64-i64:64-i128:128-f80:128-n8:16:32:64-S128"
target triple = "x86_64-pc-linux-gnu"

%struct.mbedtls_des3_context = type { [96 x i32] }

; Function Attrs: nounwind uwtable
define internal void @des3_set3key(ptr noundef %0, ptr noundef %1, ptr noundef %2) #0 {
  %4 = alloca ptr, align 8
  %5 = alloca ptr, align 8
  %6 = alloca ptr, align 8
  %7 = alloca i32, align 4
  store ptr %0, ptr %4, align 8, !tbaa !19
  store ptr %1, ptr %5, align 8, !tbaa !19
  store ptr %2, ptr %6, align 8, !tbaa !10
  call void @llvm.lifetime.start.p0(i64 4, ptr %7) #8
  %8 = load ptr, ptr %4, align 8, !tbaa !19
  %9 = load ptr, ptr %6, align 8, !tbaa !10
  call void @mbedtls_des_setkey(ptr noundef %8, ptr noundef %9)
  %10 = load ptr, ptr %5, align 8, !tbaa !19
  %11 = getelementptr inbounds i32, ptr %10, i64 32
  %12 = load ptr, ptr %6, align 8, !tbaa !10
  %13 = getelementptr inbounds i8, ptr %12, i64 8
  call void @mbedtls_des_setkey(ptr noundef %11, ptr noundef %13)
  %14 = load ptr, ptr %4, align 8, !tbaa !19
  %15 = getelementptr inbounds i32, ptr %14, i64 64
  %16 = load ptr, ptr %6, align 8, !tbaa !10
  %17 = getelementptr inbounds i8, ptr %16, i64 16
  call void @mbedtls_des_setkey(ptr noundef %15, ptr noundef %17)
  store i32 0, ptr %7, align 4, !tbaa !12
  br label %18

18:                                               ; preds = %87, %3
  %19 = load i32, ptr %7, align 4, !tbaa !12
  %20 = icmp slt i32 %19, 32
  br i1 %20, label %21, label %90

21:                                               ; preds = %18
  %22 = load ptr, ptr %4, align 8, !tbaa !19
  %23 = load i32, ptr %7, align 4, !tbaa !12
  %24 = sub nsw i32 94, %23
  %25 = sext i32 %24 to i64
  %26 = getelementptr inbounds i32, ptr %22, i64 %25
  %27 = load i32, ptr %26, align 4, !tbaa !12
  %28 = load ptr, ptr %5, align 8, !tbaa !19
  %29 = load i32, ptr %7, align 4, !tbaa !12
  %30 = sext i32 %29 to i64
  %31 = getelementptr inbounds i32, ptr %28, i64 %30
  store i32 %27, ptr %31, align 4, !tbaa !12
  %32 = load ptr, ptr %4, align 8, !tbaa !19
  %33 = load i32, ptr %7, align 4, !tbaa !12
  %34 = sub nsw i32 95, %33
  %35 = sext i32 %34 to i64
  %36 = getelementptr inbounds i32, ptr %32, i64 %35
  %37 = load i32, ptr %36, align 4, !tbaa !12
  %38 = load ptr, ptr %5, align 8, !tbaa !19
  %39 = load i32, ptr %7, align 4, !tbaa !12
  %40 = add nsw i32 %39, 1
  %41 = sext i32 %40 to i64
  %42 = getelementptr inbounds i32, ptr %38, i64 %41
  store i32 %37, ptr %42, align 4, !tbaa !12
  %43 = load ptr, ptr %5, align 8, !tbaa !19
  %44 = load i32, ptr %7, align 4, !tbaa !12
  %45 = sub nsw i32 62, %44
  %46 = sext i32 %45 to i64
  %47 = getelementptr inbounds i32, ptr %43, i64 %46
  %48 = load i32, ptr %47, align 4, !tbaa !12
  %49 = load ptr, ptr %4, align 8, !tbaa !19
  %50 = load i32, ptr %7, align 4, !tbaa !12
  %51 = add nsw i32 %50, 32
  %52 = sext i32 %51 to i64
  %53 = getelementptr inbounds i32, ptr %49, i64 %52
  store i32 %48, ptr %53, align 4, !tbaa !12
  %54 = load ptr, ptr %5, align 8, !tbaa !19
  %55 = load i32, ptr %7, align 4, !tbaa !12
  %56 = sub nsw i32 63, %55
  %57 = sext i32 %56 to i64
  %58 = getelementptr inbounds i32, ptr %54, i64 %57
  %59 = load i32, ptr %58, align 4, !tbaa !12
  %60 = load ptr, ptr %4, align 8, !tbaa !19
  %61 = load i32, ptr %7, align 4, !tbaa !12
  %62 = add nsw i32 %61, 33
  %63 = sext i32 %62 to i64
  %64 = getelementptr inbounds i32, ptr %60, i64 %63
  store i32 %59, ptr %64, align 4, !tbaa !12
  %65 = load ptr, ptr %4, align 8, !tbaa !19
  %66 = load i32, ptr %7, align 4, !tbaa !12
  %67 = sub nsw i32 30, %66
  %68 = sext i32 %67 to i64
  %69 = getelementptr inbounds i32, ptr %65, i64 %68
  %70 = load i32, ptr %69, align 4, !tbaa !12
  %71 = load ptr, ptr %5, align 8, !tbaa !19
  %72 = load i32, ptr %7, align 4, !tbaa !12
  %73 = add nsw i32 %72, 64
  %74 = sext i32 %73 to i64
  %75 = getelementptr inbounds i32, ptr %71, i64 %74
  store i32 %70, ptr %75, align 4, !tbaa !12
  %76 = load ptr, ptr %4, align 8, !tbaa !19
  %77 = load i32, ptr %7, align 4, !tbaa !12
  %78 = sub nsw i32 31, %77
  %79 = sext i32 %78 to i64
  %80 = getelementptr inbounds i32, ptr %76, i64 %79
  %81 = load i32, ptr %80, align 4, !tbaa !12
  %82 = load ptr, ptr %5, align 8, !tbaa !19
  %83 = load i32, ptr %7, align 4, !tbaa !12
  %84 = add nsw i32 %83, 65
  %85 = sext i32 %84 to i64
  %86 = getelementptr inbounds i32, ptr %82, i64 %85
  store i32 %81, ptr %86, align 4, !tbaa !12
  br label %87

87:                                               ; preds = %21
  %88 = load i32, ptr %7, align 4, !tbaa !12
  %89 = add nsw i32 %88, 2
  store i32 %89, ptr %7, align 4, !tbaa !12
  br label %18, !llvm.loop !25

90:                                               ; preds = %18
  call void @llvm.lifetime.end.p0(i64 4, ptr %7) #8
  ret void
}

; Function Attrs: nounwind uwtable
define hidden i32 @mbedtls_des3_set3key_enc(ptr noundef %0, ptr noundef %1) #0 {
  %3 = alloca ptr, align 8
  %4 = alloca ptr, align 8
  %5 = alloca [96 x i32], align 16
  store ptr %0, ptr %3, align 8, !tbaa !8
  store ptr %1, ptr %4, align 8, !tbaa !10
  call void @llvm.lifetime.start.p0(i64 384, ptr %5) #8
  %6 = load ptr, ptr %3, align 8, !tbaa !8
  %7 = getelementptr inbounds nuw %struct.mbedtls_des3_context, ptr %6, i32 0, i32 0
  %8 = getelementptr inbounds [96 x i32], ptr %7, i64 0, i64 0
  %9 = getelementptr inbounds [96 x i32], ptr %5, i64 0, i64 0
  %10 = load ptr, ptr %4, align 8, !tbaa !10
  call void @des3_set3key(ptr noundef %8, ptr noundef %9, ptr noundef %10)
  %11 = getelementptr inbounds [96 x i32], ptr %5, i64 0, i64 0
  call void @mbedtls_platform_zeroize(ptr noundef %11, i64 noundef 384)
  call void @llvm.lifetime.end.p0(i64 384, ptr %5) #8
  ret i32 0
}