; Function Attrs: nounwind uwtable
define hidden noundef i32 @mbedtls_des3_set3key_enc(ptr noundef captures(none) %0, ptr noundef readonly captures(none) %1) local_unnamed_addr #2 {
  %3 = alloca [96 x i32], align 16
  call void @llvm.lifetime.start.p0(i64 384, ptr nonnull %3) #13
  tail call void @mbedtls_des_setkey(ptr noundef %0, ptr noundef readonly %1)
  %4 = getelementptr inbounds nuw i8, ptr %3, i64 128
  %5 = getelementptr inbounds nuw i8, ptr %1, i64 8
  call void @mbedtls_des_setkey(ptr noundef nonnull %4, ptr noundef nonnull readonly %5)
  %6 = getelementptr inbounds nuw i8, ptr %0, i64 256
  %7 = getelementptr inbounds nuw i8, ptr %1, i64 16
  tail call void @mbedtls_des_setkey(ptr noundef nonnull %6, ptr noundef nonnull readonly %7)
  br label %8

8:                                                ; preds = %8, %2
  %indvars.iv.i = phi i64 [ 0, %2 ], [ %indvars.iv.next.i, %8 ]
  %9 = sub nuw nsw i64 94, %indvars.iv.i
  %10 = getelementptr inbounds nuw i32, ptr %0, i64 %9
  %11 = load i32, ptr %10, align 4, !tbaa !10
  %12 = getelementptr inbounds nuw i32, ptr %3, i64 %indvars.iv.i
  store i32 %11, ptr %12, align 8, !tbaa !10
  %13 = sub nuw nsw i64 95, %indvars.iv.i
  %14 = getelementptr inbounds nuw i32, ptr %0, i64 %13
  %15 = load i32, ptr %14, align 4, !tbaa !10
  %16 = or disjoint i64 %indvars.iv.i, 1
  %17 = getelementptr inbounds nuw i32, ptr %3, i64 %16
  store i32 %15, ptr %17, align 4, !tbaa !10
  %18 = sub nuw nsw i64 62, %indvars.iv.i
  %19 = getelementptr inbounds nuw i32, ptr %3, i64 %18
  %20 = load i32, ptr %19, align 8, !tbaa !10
  %21 = or disjoint i64 %indvars.iv.i, 32
  %22 = getelementptr inbounds nuw i32, ptr %0, i64 %21
  store i32 %20, ptr %22, align 4, !tbaa !10
  %23 = sub nuw nsw i64 63, %indvars.iv.i
  %24 = getelementptr inbounds nuw i32, ptr %3, i64 %23
  %25 = load i32, ptr %24, align 4, !tbaa !10
  %26 = or disjoint i64 %indvars.iv.i, 33
  %27 = getelementptr inbounds nuw i32, ptr %0, i64 %26
  store i32 %25, ptr %27, align 4, !tbaa !10
  %28 = sub nuw nsw i64 30, %indvars.iv.i
  %29 = getelementptr inbounds nuw i32, ptr %0, i64 %28
  %30 = load i32, ptr %29, align 4, !tbaa !10
  %31 = or disjoint i64 %indvars.iv.i, 64
  %32 = getelementptr inbounds nuw i32, ptr %3, i64 %31
  store i32 %30, ptr %32, align 8, !tbaa !10
  %33 = sub nuw nsw i64 31, %indvars.iv.i
  %34 = getelementptr inbounds nuw i32, ptr %0, i64 %33
  %35 = load i32, ptr %34, align 4, !tbaa !10
  %36 = or disjoint i64 %indvars.iv.i, 65
  %37 = getelementptr inbounds nuw i32, ptr %3, i64 %36
  store i32 %35, ptr %37, align 4, !tbaa !10
  %indvars.iv.next.i = add nuw nsw i64 %indvars.iv.i, 2
  %38 = icmp samesign ult i64 %indvars.iv.i, 30
  br i1 %38, label %8, label %des3_set3key.exit, !llvm.loop !15

des3_set3key.exit:                                ; preds = %8
  call void @mbedtls_platform_zeroize(ptr noundef nonnull %3, i64 noundef 384) #13
  call void @llvm.lifetime.end.p0(i64 384, ptr nonnull %3) #13
  ret i32 0
}